target datalayout = "e-m:e-p270:32:32-p271:32:32-p272:64:64-i64:64-i128:128-f80:128-n8:16:32:64-S128"
target triple = "x86_64-pc-linux-gnu"

@.str.15 = private unnamed_addr constant [14 x i8] c"dlep.dataitem\00", align 1
@proto_register_dlep.ett = internal global [3 x ptr] [ptr @ett_dlep, ptr @ett_dlep_dataitem, ptr @ett_dlep_flags], align 16
@.str.127 = private unnamed_addr constant [31 x i8] c"Dynamic Link Exchange Protocol\00", align 1
@.str.128 = private unnamed_addr constant [5 x i8] c"DLEP\00", align 1
@.str.129 = private unnamed_addr constant [5 x i8] c"dlep\00", align 1
@proto_dlep = internal global i32 0, align 4
@.str.130 = private unnamed_addr constant [9 x i8] c"dlep.tcp\00", align 1
@dlep_msg_handle = internal global ptr null, align 8
@.str.131 = private unnamed_addr constant [9 x i8] c"dlep.udp\00", align 1
@dlep_sig_handle = internal global ptr null, align 8
@.str.132 = private unnamed_addr constant [20 x i8] c"DLEP Data Item Type\00", align 1
@dlep_dataitem_table = internal global ptr null, align 8
@.str.133 = private unnamed_addr constant [25 x i8] c"DLEP Data Item Dissector\00", align 1
@.str.134 = private unnamed_addr constant [15 x i8] c"DLEP Data Item\00", align 1
@.str.135 = private unnamed_addr constant [15 x i8] c"dlep.data_item\00", align 1
@proto_dataitem = internal global i32 0, align 4
@.str.136 = private unnamed_addr constant [10 x i8] c"desegment\00", align 1
@.str.137 = private unnamed_addr constant [56 x i8] c"Reassemble DLEP messages spanning multiple TCP segments\00", align 1
@.str.138 = private unnamed_addr constant [205 x i8] c"Whether the DLEP dissector should reassemble messages spanning multiple TCP segments. To use this option, you must also enable \22Allow subdissectors to reassemble TCP streams\22 in the TCP protocol settings.\00", align 1
@dlep_desegment = internal global i8 1, align 1

; Function Attrs: null_pointer_is_valid sspstrong uwtable
define hidden void @proto_register_dlep() #0 {
  %1 = alloca ptr, align 8
  %2 = alloca ptr, align 8
  call void @llvm.lifetime.start.p0(i64 8, ptr %1) #6
  call void @llvm.lifetime.start.p0(i64 8, ptr %2) #6
  %3 = call i32 @proto_register_protocol(ptr noundef @.str.127, ptr noundef @.str.128, ptr noundef @.str.129)
  store i32 %3, ptr @proto_dlep, align 4
  %4 = load i32, ptr @proto_dlep, align 4
  %5 = call ptr @register_dissector(ptr noundef @.str.130, ptr noundef @dissect_dlep_tcp, i32 noundef %4)
  store ptr %5, ptr @dlep_msg_handle, align 8
  %6 = load i32, ptr @proto_dlep, align 4
  %7 = call ptr @register_dissector(ptr noundef @.str.131, ptr noundef @dissect_dlep_sig, i32 noundef %6)
  store ptr %7, ptr @dlep_sig_handle, align 8
  %8 = load i32, ptr @proto_dlep, align 4
  %9 = call ptr @register_dissector_table(ptr noundef @.str.15, ptr noundef @.str.132, i32 noundef %8, i32 noundef 5, i32 noundef 1)
  store ptr %9, ptr @dlep_dataitem_table, align 8
  %10 = load i32, ptr @proto_dlep, align 4
  %11 = call i32 @proto_register_protocol_in_name_only(ptr noundef @.str.133, ptr noundef @.str.134, ptr noundef @.str.135, i32 noundef %10, i32 noundef 30)
  store i32 %11, ptr @proto_dataitem, align 4
  %12 = load i32, ptr @proto_dataitem, align 4
  %13 = call ptr @create_dissector_handle(ptr noundef @decode_dataitem_status, i32 noundef %12)
  call void @dissector_add_uint(ptr noundef @.str.15, i32 noundef 1, ptr noundef %13)
  %14 = load i32, ptr @proto_dataitem, align 4
  %15 = call ptr @create_dissector_handle(ptr noundef @decode_dataitem_v4conn, i32 noundef %14)
  call void @dissector_add_uint(ptr noundef @.str.15, i32 noundef 2, ptr noundef %15)
  %16 = load i32, ptr @proto_dataitem, align 4
  %17 = call ptr @create_dissector_handle(ptr noundef @decode_dataitem_v6conn, i32 noundef %16)
  call void @dissector_add_uint(ptr noundef @.str.15, i32 noundef 3, ptr noundef %17)
  %18 = load i32, ptr @proto_dataitem, align 4
  %19 = call ptr @create_dissector_handle(ptr noundef @decode_dataitem_peertype, i32 noundef %18)
  call void @dissector_add_uint(ptr noundef @.str.15, i32 noundef 4, ptr noundef %19)
  %20 = load i32, ptr @proto_dataitem, align 4
  %21 = call ptr @create_dissector_handle(ptr noundef @decode_dataitem_heartbeat, i32 noundef %20)
  call void @dissector_add_uint(ptr noundef @.str.15, i32 noundef 5, ptr noundef %21)
  %22 = load i32, ptr @proto_dataitem, align 4
  %23 = call ptr @create_dissector_handle(ptr noundef @decode_dataitem_extsupp, i32 noundef %22)
  call void @dissector_add_uint(ptr noundef @.str.15, i32 noundef 6, ptr noundef %23)
  %24 = load i32, ptr @proto_dataitem, align 4
  %25 = call ptr @create_dissector_handle(ptr noundef @decode_dataitem_macaddr, i32 noundef %24)
  call void @dissector_add_uint(ptr noundef @.str.15, i32 noundef 7, ptr noundef %25)
  %26 = load i32, ptr @proto_dataitem, align 4
  %27 = call ptr @create_dissector_handle(ptr noundef @decode_dataitem_v4addr, i32 noundef %26)
  call void @dissector_add_uint(ptr noundef @.str.15, i32 noundef 8, ptr noundef %27)
  %28 = load i32, ptr @proto_dataitem, align 4
  %29 = call ptr @create_dissector_handle(ptr noundef @decode_dataitem_v6addr, i32 noundef %28)
  call void @dissector_add_uint(ptr noundef @.str.15, i32 noundef 9, ptr noundef %29)
  %30 = load i32, ptr @proto_dataitem, align 4
  %31 = call ptr @create_dissector_handle(ptr noundef @decode_dataitem_v4subnet, i32 noundef %30)
  call void @dissector_add_uint(ptr noundef @.str.15, i32 noundef 10, ptr noundef %31)
  %32 = load i32, ptr @proto_dataitem, align 4
  %33 = call ptr @create_dissector_handle(ptr noundef @decode_dataitem_v6subnet, i32 noundef %32)
  call void @dissector_add_uint(ptr noundef @.str.15, i32 noundef 11, ptr noundef %33)
  %34 = load i32, ptr @proto_dataitem, align 4
  %35 = call ptr @create_dissector_handle(ptr noundef @decode_dataitem_mdrr, i32 noundef %34)
  call void @dissector_add_uint(ptr noundef @.str.15, i32 noundef 12, ptr noundef %35)
  %36 = load i32, ptr @proto_dataitem, align 4
  %37 = call ptr @create_dissector_handle(ptr noundef @decode_dataitem_mdrt, i32 noundef %36)
  call void @dissector_add_uint(ptr noundef @.str.15, i32 noundef 13, ptr noundef %37)
  %38 = load i32, ptr @proto_dataitem, align 4
  %39 = call ptr @create_dissector_handle(ptr noundef @decode_dataitem_cdrr, i32 noundef %38)
  call void @dissector_add_uint(ptr noundef @.str.15, i32 noundef 14, ptr noundef %39)
  %40 = load i32, ptr @proto_dataitem, align 4
  %41 = call ptr @create_dissector_handle(ptr noundef @decode_dataitem_cdrt, i32 noundef %40)
  call void @dissector_add_uint(ptr noundef @.str.15, i32 noundef 15, ptr noundef %41)
  %42 = load i32, ptr @proto_dataitem, align 4
  %43 = call ptr @create_dissector_handle(ptr noundef @decode_dataitem_latency, i32 noundef %42)
  call void @dissector_add_uint(ptr noundef @.str.15, i32 noundef 16, ptr noundef %43)
  %44 = load i32, ptr @proto_dataitem, align 4
  %45 = call ptr @create_dissector_handle(ptr noundef @decode_dataitem_resources, i32 noundef %44)
  call void @dissector_add_uint(ptr noundef @.str.15, i32 noundef 17, ptr noundef %45)
  %46 = load i32, ptr @proto_dataitem, align 4
  %47 = call ptr @create_dissector_handle(ptr noundef @decode_dataitem_rlqr, i32 noundef %46)
  call void @dissector_add_uint(ptr noundef @.str.15, i32 noundef 18, ptr noundef %47)
  %48 = load i32, ptr @proto_dataitem, align 4
  %49 = call ptr @create_dissector_handle(ptr noundef @decode_dataitem_rlqt, i32 noundef %48)
  call void @dissector_add_uint(ptr noundef @.str.15, i32 noundef 19, ptr noundef %49)
  %50 = load i32, ptr @proto_dataitem, align 4
  %51 = call ptr @create_dissector_handle(ptr noundef @decode_dataitem_mtu, i32 noundef %50)
  call void @dissector_add_uint(ptr noundef @.str.15, i32 noundef 20, ptr noundef %51)
  %52 = load i32, ptr @proto_dataitem, align 4
  %53 = call ptr @create_dissector_handle(ptr noundef @decode_dataitem_hop_cnt, i32 noundef %52)
  call void @dissector_add_uint(ptr noundef @.str.15, i32 noundef 21, ptr noundef %53)
  %54 = load i32, ptr @proto_dataitem, align 4
  %55 = call ptr @create_dissector_handle(ptr noundef @decode_dataitem_hop_cntrl, i32 noundef %54)
  call void @dissector_add_uint(ptr noundef @.str.15, i32 noundef 22, ptr noundef %55)
  %56 = load i32, ptr @proto_dataitem, align 4
  %57 = call ptr @create_dissector_handle(ptr noundef @decode_dataitem_li_length, i32 noundef %56)
  call void @dissector_add_uint(ptr noundef @.str.15, i32 noundef 26, ptr noundef %57)
  %58 = load i32, ptr @proto_dataitem, align 4
  %59 = call ptr @create_dissector_handle(ptr noundef @decode_dataitem_li, i32 noundef %58)
  call void @dissector_add_uint(ptr noundef @.str.15, i32 noundef 27, ptr noundef %59)
  %60 = load i32, ptr @proto_dataitem, align 4
  %61 = call ptr @create_dissector_handle(ptr noundef @decode_dataitem_lat_range, i32 noundef %60)
  call void @dissector_add_uint(ptr noundef @.str.15, i32 noundef 28, ptr noundef %61)
  %62 = load i32, ptr @proto_dlep, align 4
  call void @proto_register_field_array(i32 noundef %62, ptr noundef @proto_register_dlep.hf, i32 noundef 69)
  call void @proto_register_subtree_array(ptr noundef @proto_register_dlep.ett, i32 noundef 3)
  %63 = load i32, ptr @proto_dlep, align 4
  %64 = call ptr @prefs_register_protocol(i32 noundef %63, ptr noundef null)
  store ptr %64, ptr %1, align 8
  %65 = load ptr, ptr %1, align 8
  call void @prefs_register_bool_preference(ptr noundef %65, ptr noundef @.str.136, ptr noundef @.str.137, ptr noundef @.str.138, ptr noundef @dlep_desegment)
  %66 = load i32, ptr @proto_dlep, align 4
  %67 = call ptr @expert_register_protocol(i32 noundef %66)
  store ptr %67, ptr %2, align 8
  %68 = load ptr, ptr %2, align 8
  call void @expert_register_field_array(ptr noundef %68, ptr noundef @proto_register_dlep.ei, i32 noundef 4)
  call void @llvm.lifetime.end.p0(i64 8, ptr %2) #6
  call void @llvm.lifetime.end.p0(i64 8, ptr %1) #6
  ret void
}