; Function Attrs: null_pointer_is_valid sspstrong uwtable
define hidden void @proto_register_dlep() local_unnamed_addr #0 {
  %1 = tail call i32 @proto_register_protocol(ptr noundef nonnull @.str.127, ptr noundef nonnull @.str.128, ptr noundef nonnull @.str.129)
  store i32 %1, ptr @proto_dlep, align 4
  %2 = tail call ptr @register_dissector(ptr noundef nonnull @.str.130, ptr noundef nonnull @dissect_dlep_tcp, i32 noundef %1)
  store ptr %2, ptr @dlep_msg_handle, align 8
  %3 = load i32, ptr @proto_dlep, align 4
  %4 = tail call ptr @register_dissector(ptr noundef nonnull @.str.131, ptr noundef nonnull @dissect_dlep_sig, i32 noundef %3)
  store ptr %4, ptr @dlep_sig_handle, align 8
  %5 = load i32, ptr @proto_dlep, align 4
  %6 = tail call ptr @register_dissector_table(ptr noundef nonnull @.str.15, ptr noundef nonnull @.str.132, i32 noundef %5, i32 noundef 5, i32 noundef 1)
  store ptr %6, ptr @dlep_dataitem_table, align 8
  %7 = load i32, ptr @proto_dlep, align 4
  %8 = tail call i32 @proto_register_protocol_in_name_only(ptr noundef nonnull @.str.133, ptr noundef nonnull @.str.134, ptr noundef nonnull @.str.135, i32 noundef %7, i32 noundef 30)
  store i32 %8, ptr @proto_dataitem, align 4
  %9 = tail call ptr @create_dissector_handle(ptr noundef nonnull @decode_dataitem_status, i32 noundef %8)
  tail call void @dissector_add_uint(ptr noundef nonnull @.str.15, i32 noundef 1, ptr noundef %9)
  %10 = load i32, ptr @proto_dataitem, align 4
  %11 = tail call ptr @create_dissector_handle(ptr noundef nonnull @decode_dataitem_v4conn, i32 noundef %10)
  tail call void @dissector_add_uint(ptr noundef nonnull @.str.15, i32 noundef 2, ptr noundef %11)
  %12 = load i32, ptr @proto_dataitem, align 4
  %13 = tail call ptr @create_dissector_handle(ptr noundef nonnull @decode_dataitem_v6conn, i32 noundef %12)
  tail call void @dissector_add_uint(ptr noundef nonnull @.str.15, i32 noundef 3, ptr noundef %13)
  %14 = load i32, ptr @proto_dataitem, align 4
  %15 = tail call ptr @create_dissector_handle(ptr noundef nonnull @decode_dataitem_peertype, i32 noundef %14)
  tail call void @dissector_add_uint(ptr noundef nonnull @.str.15, i32 noundef 4, ptr noundef %15)
  %16 = load i32, ptr @proto_dataitem, align 4
  %17 = tail call ptr @create_dissector_handle(ptr noundef nonnull @decode_dataitem_heartbeat, i32 noundef %16)
  tail call void @dissector_add_uint(ptr noundef nonnull @.str.15, i32 noundef 5, ptr noundef %17)
  %18 = load i32, ptr @proto_dataitem, align 4
  %19 = tail call ptr @create_dissector_handle(ptr noundef nonnull @decode_dataitem_extsupp, i32 noundef %18)
  tail call void @dissector_add_uint(ptr noundef nonnull @.str.15, i32 noundef 6, ptr noundef %19)
  %20 = load i32, ptr @proto_dataitem, align 4
  %21 = tail call ptr @create_dissector_handle(ptr noundef nonnull @decode_dataitem_macaddr, i32 noundef %20)
  tail call void @dissector_add_uint(ptr noundef nonnull @.str.15, i32 noundef 7, ptr noundef %21)
  %22 = load i32, ptr @proto_dataitem, align 4
  %23 = tail call ptr @create_dissector_handle(ptr noundef nonnull @decode_dataitem_v4addr, i32 noundef %22)
  tail call void @dissector_add_uint(ptr noundef nonnull @.str.15, i32 noundef 8, ptr noundef %23)
  %24 = load i32, ptr @proto_dataitem, align 4
  %25 = tail call ptr @create_dissector_handle(ptr noundef nonnull @decode_dataitem_v6addr, i32 noundef %24)
  tail call void @dissector_add_uint(ptr noundef nonnull @.str.15, i32 noundef 9, ptr noundef %25)
  %26 = load i32, ptr @proto_dataitem, align 4
  %27 = tail call ptr @create_dissector_handle(ptr noundef nonnull @decode_dataitem_v4subnet, i32 noundef %26)
  tail call void @dissector_add_uint(ptr noundef nonnull @.str.15, i32 noundef 10, ptr noundef %27)
  %28 = load i32, ptr @proto_dataitem, align 4
  %29 = tail call ptr @create_dissector_handle(ptr noundef nonnull @decode_dataitem_v6subnet, i32 noundef %28)
  tail call void @dissector_add_uint(ptr noundef nonnull @.str.15, i32 noundef 11, ptr noundef %29)
  %30 = load i32, ptr @proto_dataitem, align 4
  %31 = tail call ptr @create_dissector_handle(ptr noundef nonnull @decode_dataitem_mdrr, i32 noundef %30)
  tail call void @dissector_add_uint(ptr noundef nonnull @.str.15, i32 noundef 12, ptr noundef %31)
  %32 = load i32, ptr @proto_dataitem, align 4
  %33 = tail call ptr @create_dissector_handle(ptr noundef nonnull @decode_dataitem_mdrt, i32 noundef %32)
  tail call void @dissector_add_uint(ptr noundef nonnull @.str.15, i32 noundef 13, ptr noundef %33)
  %34 = load i32, ptr @proto_dataitem, align 4
  %35 = tail call ptr @create_dissector_handle(ptr noundef nonnull @decode_dataitem_cdrr, i32 noundef %34)
  tail call void @dissector_add_uint(ptr noundef nonnull @.str.15, i32 noundef 14, ptr noundef %35)
  %36 = load i32, ptr @proto_dataitem, align 4
  %37 = tail call ptr @create_dissector_handle(ptr noundef nonnull @decode_dataitem_cdrt, i32 noundef %36)
  tail call void @dissector_add_uint(ptr noundef nonnull @.str.15, i32 noundef 15, ptr noundef %37)
  %38 = load i32, ptr @proto_dataitem, align 4
  %39 = tail call ptr @create_dissector_handle(ptr noundef nonnull @decode_dataitem_latency, i32 noundef %38)
  tail call void @dissector_add_uint(ptr noundef nonnull @.str.15, i32 noundef 16, ptr noundef %39)
  %40 = load i32, ptr @proto_dataitem, align 4
  %41 = tail call ptr @create_dissector_handle(ptr noundef nonnull @decode_dataitem_resources, i32 noundef %40)
  tail call void @dissector_add_uint(ptr noundef nonnull @.str.15, i32 noundef 17, ptr noundef %41)
  %42 = load i32, ptr @proto_dataitem, align 4
  %43 = tail call ptr @create_dissector_handle(ptr noundef nonnull @decode_dataitem_rlqr, i32 noundef %42)
  tail call void @dissector_add_uint(ptr noundef nonnull @.str.15, i32 noundef 18, ptr noundef %43)
  %44 = load i32, ptr @proto_dataitem, align 4
  %45 = tail call ptr @create_dissector_handle(ptr noundef nonnull @decode_dataitem_rlqt, i32 noundef %44)
  tail call void @dissector_add_uint(ptr noundef nonnull @.str.15, i32 noundef 19, ptr noundef %45)
  %46 = load i32, ptr @proto_dataitem, align 4
  %47 = tail call ptr @create_dissector_handle(ptr noundef nonnull @decode_dataitem_mtu, i32 noundef %46)
  tail call void @dissector_add_uint(ptr noundef nonnull @.str.15, i32 noundef 20, ptr noundef %47)
  %48 = load i32, ptr @proto_dataitem, align 4
  %49 = tail call ptr @create_dissector_handle(ptr noundef nonnull @decode_dataitem_hop_cnt, i32 noundef %48)
  tail call void @dissector_add_uint(ptr noundef nonnull @.str.15, i32 noundef 21, ptr noundef %49)
  %50 = load i32, ptr @proto_dataitem, align 4
  %51 = tail call ptr @create_dissector_handle(ptr noundef nonnull @decode_dataitem_hop_cntrl, i32 noundef %50)
  tail call void @dissector_add_uint(ptr noundef nonnull @.str.15, i32 noundef 22, ptr noundef %51)
  %52 = load i32, ptr @proto_dataitem, align 4
  %53 = tail call ptr @create_dissector_handle(ptr noundef nonnull @decode_dataitem_li_length, i32 noundef %52)
  tail call void @dissector_add_uint(ptr noundef nonnull @.str.15, i32 noundef 26, ptr noundef %53)
  %54 = load i32, ptr @proto_dataitem, align 4
  %55 = tail call ptr @create_dissector_handle(ptr noundef nonnull @decode_dataitem_li, i32 noundef %54)
  tail call void @dissector_add_uint(ptr noundef nonnull @.str.15, i32 noundef 27, ptr noundef %55)
  %56 = load i32, ptr @proto_dataitem, align 4
  %57 = tail call ptr @create_dissector_handle(ptr noundef nonnull @decode_dataitem_lat_range, i32 noundef %56)
  tail call void @dissector_add_uint(ptr noundef nonnull @.str.15, i32 noundef 28, ptr noundef %57)
  %58 = load i32, ptr @proto_dlep, align 4
  tail call void @proto_register_field_array(i32 noundef %58, ptr noundef nonnull @proto_register_dlep.hf, i32 noundef 69)
  tail call void @proto_register_subtree_array(ptr noundef nonnull @proto_register_dlep.ett, i32 noundef 3)
  %59 = load i32, ptr @proto_dlep, align 4
  %60 = tail call ptr @prefs_register_protocol(i32 noundef %59, ptr noundef null)
  tail call void @prefs_register_bool_preference(ptr noundef %60, ptr noundef nonnull @.str.136, ptr noundef nonnull @.str.137, ptr noundef nonnull @.str.138, ptr noundef nonnull @dlep_desegment)
  %61 = load i32, ptr @proto_dlep, align 4
  %62 = tail call ptr @expert_register_protocol(i32 noundef %61)
  tail call void @expert_register_field_array(ptr noundef %62, ptr noundef nonnull @proto_register_dlep.ei, i32 noundef 4)
  ret void
}